target datalayout = "e-m:e-p270:32:32-p271:32:32-p272:64:64-i64:64-i128:128-f80:128-n8:16:32:64-S128"
target triple = "x86_64-unknown-linux-gnu"

%"struct.icu_75::number::impl::MacroProps" = type { [4 x i8], %"class.icu_75::number::Notation", %"class.icu_75::MeasureUnit", %"class.icu_75::MeasureUnit", %"class.icu_75::number::Precision", i32, %"class.icu_75::number::impl::Grouper", %"class.icu_75::number::impl::Padder", %"class.icu_75::number::IntegerWidth", %"class.icu_75::number::impl::SymbolsWrapper", i32, i32, i8, i32, %"class.icu_75::number::Scale", %"class.icu_75::number::impl::StringProp", %"class.icu_75::number::impl::StringProp", ptr, ptr, i32, [4 x i8], %"class.icu_75::Locale" }
%"class.icu_75::number::Notation" = type { i32, %"union.icu_75::number::Notation::NotationUnion" }
%"union.icu_75::number::Notation::NotationUnion" = type { %"struct.icu_75::number::Notation::NotationUnion::ScientificSettings" }
%"struct.icu_75::number::Notation::NotationUnion::ScientificSettings" = type { i8, i8, i16, i32 }
%"class.icu_75::MeasureUnit" = type <{ %"class.icu_75::UObject", ptr, i16, i8, [5 x i8] }>
%"class.icu_75::UObject" = type { ptr }
%"class.icu_75::number::Precision" = type <{ i32, [4 x i8], %"union.icu_75::number::Precision::PrecisionUnion", i32, [4 x i8] }>
%"union.icu_75::number::Precision::PrecisionUnion" = type { %"struct.icu_75::number::Precision::PrecisionUnion::IncrementSettings" }
%"struct.icu_75::number::Precision::PrecisionUnion::IncrementSettings" = type { i64, i16, i16 }
%"class.icu_75::number::impl::Grouper" = type { i16, i16, i16, i32 }
%"class.icu_75::number::impl::Padder" = type { i32, %union.anon }
%union.anon = type { %struct.anon }
%struct.anon = type { i32, i32 }
%"class.icu_75::number::IntegerWidth" = type <{ %union.anon.0, i8, [3 x i8] }>
%union.anon.0 = type { i32, [4 x i8] }
%"class.icu_75::number::impl::SymbolsWrapper" = type { i32, %union.anon.2 }
%union.anon.2 = type { ptr }
%"class.icu_75::number::Scale" = type <{ i32, [4 x i8], ptr, i32, [4 x i8] }>
%"class.icu_75::number::impl::StringProp" = type { ptr, i16, i32 }
%"class.icu_75::Locale" = type <{ %"class.icu_75::UObject", [12 x i8], [6 x i8], [4 x i8], [2 x i8], i32, [4 x i8], ptr, [157 x i8], [3 x i8], ptr, i8, [7 x i8] }>
%"class.icu_75::number::LocalizedNumberFormatter" = type { %"class.icu_75::number::NumberFormatterSettings.5", ptr, [8 x i8], ptr }
%"class.icu_75::number::NumberFormatterSettings.5" = type { %"struct.icu_75::number::impl::MacroProps" }

; Function Attrs: noreturn nounwind uwtable
define linkonce_odr hidden void @__clang_call_terminate(ptr noundef %0) #2 comdat {
  %2 = call ptr @__cxa_begin_catch(ptr %0) #10
  call void @_ZSt9terminatev() #12
  unreachable
}

; Function Attrs: mustprogress nounwind uwtable
define linkonce_odr noundef i32 @_ZStanSt12memory_orderSt23__memory_order_modifier(i32 noundef %__m, i32 noundef %__mod) #0 comdat {
entry:
  %__m.addr = alloca i32, align 4
  %__mod.addr = alloca i32, align 4
  store i32 %__m, ptr %__m.addr, align 4
  store i32 %__mod, ptr %__mod.addr, align 4
  %0 = load i32, ptr %__m.addr, align 4
  %1 = load i32, ptr %__mod.addr, align 4
  %and = and i32 %0, %1
  ret i32 %and
}

; Function Attrs: mustprogress nounwind uwtable
define linkonce_odr void @_ZN6icu_7517umtx_storeReleaseERSt6atomicIiEi(ptr noundef nonnull align 4 dereferenceable(4) %var, i32 noundef %val) #0 comdat personality ptr @__gxx_personality_v0 {
entry:
  %this.addr.i = alloca ptr, align 8
  %__i.addr.i = alloca i32, align 4
  %__m.addr.i = alloca i32, align 4
  %__b.i = alloca i32, align 4
  %.atomictmp.i = alloca i32, align 4
  %var.addr = alloca ptr, align 8
  %val.addr = alloca i32, align 4
  store ptr %var, ptr %var.addr, align 8
  store i32 %val, ptr %val.addr, align 4
  %0 = load ptr, ptr %var.addr, align 8
  %1 = load i32, ptr %val.addr, align 4
  store ptr %0, ptr %this.addr.i, align 8
  store i32 %1, ptr %__i.addr.i, align 4
  store i32 3, ptr %__m.addr.i, align 4
  %this1.i = load ptr, ptr %this.addr.i, align 8
  %2 = load i32, ptr %__m.addr.i, align 4
  %call.i = invoke noundef i32 @_ZStanSt12memory_orderSt23__memory_order_modifier(i32 noundef %2, i32 noundef 65535)
          to label %invoke.cont.i unwind label %terminate.lpad.i

invoke.cont.i:                                    ; preds = %entry
  store i32 %call.i, ptr %__b.i, align 4
  %3 = load i32, ptr %__m.addr.i, align 4
  %4 = load i32, ptr %__i.addr.i, align 4
  store i32 %4, ptr %.atomictmp.i, align 4
  switch i32 %3, label %monotonic.i [
    i32 3, label %release.i
    i32 5, label %seqcst.i
  ]

monotonic.i:                                      ; preds = %invoke.cont.i
  %5 = load i32, ptr %.atomictmp.i, align 4
  store atomic i32 %5, ptr %this1.i monotonic, align 4
  br label %_ZNSt13__atomic_baseIiE5storeEiSt12memory_order.exit

release.i:                                        ; preds = %invoke.cont.i
  %6 = load i32, ptr %.atomictmp.i, align 4
  store atomic i32 %6, ptr %this1.i release, align 4
  br label %_ZNSt13__atomic_baseIiE5storeEiSt12memory_order.exit

seqcst.i:                                         ; preds = %invoke.cont.i
  %7 = load i32, ptr %.atomictmp.i, align 4
  store atomic i32 %7, ptr %this1.i seq_cst, align 4
  br label %_ZNSt13__atomic_baseIiE5storeEiSt12memory_order.exit

terminate.lpad.i:                                 ; preds = %entry
  %8 = landingpad { ptr, i32 }
          catch ptr null
  %9 = extractvalue { ptr, i32 } %8, 0
  call void @__clang_call_terminate(ptr %9) #12
  unreachable

_ZNSt13__atomic_baseIiE5storeEiSt12memory_order.exit: ; preds = %seqcst.i, %release.i, %monotonic.i
  ret void
}

; Function Attrs: mustprogress nounwind uwtable
define linkonce_odr noundef i32 @_ZN6icu_7515umtx_atomic_incEPSt6atomicIiE(ptr noundef %var) #0 comdat {
entry:
  %this.addr.i = alloca ptr, align 8
  %__i.addr.i = alloca i32, align 4
  %__m.addr.i = alloca i32, align 4
  %.atomictmp.i = alloca i32, align 4
  %atomic-temp.i = alloca i32, align 4
  %var.addr = alloca ptr, align 8
  store ptr %var, ptr %var.addr, align 8
  %0 = load ptr, ptr %var.addr, align 8
  store ptr %0, ptr %this.addr.i, align 8
  store i32 1, ptr %__i.addr.i, align 4
  store i32 5, ptr %__m.addr.i, align 4
  %this1.i = load ptr, ptr %this.addr.i, align 8
  %1 = load i32, ptr %__m.addr.i, align 4
  %2 = load i32, ptr %__i.addr.i, align 4
  store i32 %2, ptr %.atomictmp.i, align 4
  switch i32 %1, label %monotonic.i [
    i32 1, label %acquire.i
    i32 2, label %acquire.i
    i32 3, label %release.i
    i32 4, label %acqrel.i
    i32 5, label %seqcst.i
  ]

monotonic.i:                                      ; preds = %entry
  %3 = load i32, ptr %.atomictmp.i, align 4
  %4 = atomicrmw add ptr %this1.i, i32 %3 monotonic, align 4
  store i32 %4, ptr %atomic-temp.i, align 4
  br label %_ZNSt13__atomic_baseIiE9fetch_addEiSt12memory_order.exit

acquire.i:                                        ; preds = %entry, %entry
  %5 = load i32, ptr %.atomictmp.i, align 4
  %6 = atomicrmw add ptr %this1.i, i32 %5 acquire, align 4
  store i32 %6, ptr %atomic-temp.i, align 4
  br label %_ZNSt13__atomic_baseIiE9fetch_addEiSt12memory_order.exit

release.i:                                        ; preds = %entry
  %7 = load i32, ptr %.atomictmp.i, align 4
  %8 = atomicrmw add ptr %this1.i, i32 %7 release, align 4
  store i32 %8, ptr %atomic-temp.i, align 4
  br label %_ZNSt13__atomic_baseIiE9fetch_addEiSt12memory_order.exit

acqrel.i:                                         ; preds = %entry
  %9 = load i32, ptr %.atomictmp.i, align 4
  %10 = atomicrmw add ptr %this1.i, i32 %9 acq_rel, align 4
  store i32 %10, ptr %atomic-temp.i, align 4
  br label %_ZNSt13__atomic_baseIiE9fetch_addEiSt12memory_order.exit

seqcst.i:                                         ; preds = %entry
  %11 = load i32, ptr %.atomictmp.i, align 4
  %12 = atomicrmw add ptr %this1.i, i32 %11 seq_cst, align 4
  store i32 %12, ptr %atomic-temp.i, align 4
  br label %_ZNSt13__atomic_baseIiE9fetch_addEiSt12memory_order.exit

_ZNSt13__atomic_baseIiE9fetch_addEiSt12memory_order.exit: ; preds = %seqcst.i, %acqrel.i, %release.i, %acquire.i, %monotonic.i
  %13 = load i32, ptr %atomic-temp.i, align 4
  %add = add nsw i32 %13, 1
  ret i32 %add
}

; Function Attrs: mustprogress nounwind uwtable
define linkonce_odr noundef i32 @_ZN6icu_7516umtx_loadAcquireERSt6atomicIiE(ptr noundef nonnull align 4 dereferenceable(4) %var) #0 comdat {
entry:
  %this.addr.i = alloca ptr, align 8
  %__m.addr.i = alloca i32, align 4
  %__b.i = alloca i32, align 4
  %atomic-temp.i = alloca i32, align 4
  %var.addr = alloca ptr, align 8
  store ptr %var, ptr %var.addr, align 8
  %0 = load ptr, ptr %var.addr, align 8
  store ptr %0, ptr %this.addr.i, align 8
  store i32 2, ptr %__m.addr.i, align 4
  %this1.i = load ptr, ptr %this.addr.i, align 8
  %1 = load i32, ptr %__m.addr.i, align 4
  %call.i = call noundef i32 @_ZStanSt12memory_orderSt23__memory_order_modifier(i32 noundef %1, i32 noundef 65535)
  store i32 %call.i, ptr %__b.i, align 4
  %2 = load i32, ptr %__m.addr.i, align 4
  switch i32 %2, label %monotonic.i [
    i32 1, label %acquire.i
    i32 2, label %acquire.i
    i32 5, label %seqcst.i
  ]

monotonic.i:                                      ; preds = %entry
  %3 = load atomic i32, ptr %this1.i monotonic, align 4
  store i32 %3, ptr %atomic-temp.i, align 4
  br label %_ZNKSt13__atomic_baseIiE4loadESt12memory_order.exit

acquire.i:                                        ; preds = %entry, %entry
  %4 = load atomic i32, ptr %this1.i acquire, align 4
  store i32 %4, ptr %atomic-temp.i, align 4
  br label %_ZNKSt13__atomic_baseIiE4loadESt12memory_order.exit

seqcst.i:                                         ; preds = %entry
  %5 = load atomic i32, ptr %this1.i seq_cst, align 4
  store i32 %5, ptr %atomic-temp.i, align 4
  br label %_ZNKSt13__atomic_baseIiE4loadESt12memory_order.exit

_ZNKSt13__atomic_baseIiE4loadESt12memory_order.exit: ; preds = %seqcst.i, %acquire.i, %monotonic.i
  %6 = load i32, ptr %atomic-temp.i, align 4
  ret i32 %6
}

; Function Attrs: mustprogress uwtable
define noundef zeroext i1 @_ZNK6icu_756number24LocalizedNumberFormatter15computeCompiledER10UErrorCode(ptr noundef nonnull align 8 dereferenceable(496) %this, ptr noundef nonnull align 4 dereferenceable(4) %status) #1 align 2 personality ptr @__gxx_personality_v0 {
entry:
  %retval = alloca i1, align 1
  %this.addr = alloca ptr, align 8
  %status.addr = alloca ptr, align 8
  %callCount = alloca ptr, align 8
  %currentCount = alloca i32, align 4
  %compiled = alloca ptr, align 8
  %saved-rvalue = alloca ptr, align 8
  %cleanup.cond = alloca i1, align 1
  %exn.slot = alloca ptr, align 8
  %ehselector.slot = alloca i32, align 4
  store ptr %this, ptr %this.addr, align 8
  store ptr %status, ptr %status.addr, align 8
  %this1 = load ptr, ptr %this.addr, align 8
  %fUnsafeCallCount = getelementptr inbounds %"class.icu_75::number::LocalizedNumberFormatter", ptr %this1, i32 0, i32 2
  %arraydecay = getelementptr inbounds [8 x i8], ptr %fUnsafeCallCount, i64 0, i64 0
  store ptr %arraydecay, ptr %callCount, align 8
  %0 = load ptr, ptr %callCount, align 8
  %call = call noundef i32 @_ZN6icu_7516umtx_loadAcquireERSt6atomicIiE(ptr noundef nonnull align 4 dereferenceable(4) %0)
  store i32 %call, ptr %currentCount, align 4
  %1 = load i32, ptr %currentCount, align 4
  %cmp = icmp sle i32 0, %1
  br i1 %cmp, label %land.lhs.true, label %if.end

land.lhs.true:                                    ; preds = %entry
  %2 = load i32, ptr %currentCount, align 4
  %fMacros = getelementptr inbounds %"class.icu_75::number::NumberFormatterSettings.5", ptr %this1, i32 0, i32 0
  %threshold = getelementptr inbounds %"struct.icu_75::number::impl::MacroProps", ptr %fMacros, i32 0, i32 19
  %3 = load i32, ptr %threshold, align 8
  %cmp2 = icmp sle i32 %2, %3
  br i1 %cmp2, label %land.lhs.true3, label %if.end

land.lhs.true3:                                   ; preds = %land.lhs.true
  %fMacros4 = getelementptr inbounds %"class.icu_75::number::NumberFormatterSettings.5", ptr %this1, i32 0, i32 0
  %threshold5 = getelementptr inbounds %"struct.icu_75::number::impl::MacroProps", ptr %fMacros4, i32 0, i32 19
  %4 = load i32, ptr %threshold5, align 8
  %cmp6 = icmp sgt i32 %4, 0
  br i1 %cmp6, label %if.then, label %if.end

if.then:                                          ; preds = %land.lhs.true3
  %5 = load ptr, ptr %callCount, align 8
  %call7 = call noundef i32 @_ZN6icu_7515umtx_atomic_incEPSt6atomicIiE(ptr noundef %5)
  store i32 %call7, ptr %currentCount, align 4
  br label %if.end

if.end:                                           ; preds = %if.then, %land.lhs.true3, %land.lhs.true, %entry
  %6 = load i32, ptr %currentCount, align 4
  %fMacros8 = getelementptr inbounds %"class.icu_75::number::NumberFormatterSettings.5", ptr %this1, i32 0, i32 0
  %threshold9 = getelementptr inbounds %"struct.icu_75::number::impl::MacroProps", ptr %fMacros8, i32 0, i32 19
  %7 = load i32, ptr %threshold9, align 8
  %cmp10 = icmp eq i32 %6, %7
  br i1 %cmp10, label %land.lhs.true11, label %if.else

land.lhs.true11:                                  ; preds = %if.end
  %fMacros12 = getelementptr inbounds %"class.icu_75::number::NumberFormatterSettings.5", ptr %this1, i32 0, i32 0
  %threshold13 = getelementptr inbounds %"struct.icu_75::number::impl::MacroProps", ptr %fMacros12, i32 0, i32 19
  %8 = load i32, ptr %threshold13, align 8
  %cmp14 = icmp sgt i32 %8, 0
  br i1 %cmp14, label %if.then15, label %if.else

if.then15:                                        ; preds = %land.lhs.true11
  %call16 = call noundef ptr @_ZN6icu_757UMemorynwEm(i64 noundef 600) #10
  %new.isnull = icmp eq ptr %call16, null
  store i1 false, ptr %cleanup.cond, align 1
  br i1 %new.isnull, label %new.cont, label %new.notnull

new.notnull:                                      ; preds = %if.then15
  store ptr %call16, ptr %saved-rvalue, align 8
  store i1 true, ptr %cleanup.cond, align 1
  %fMacros17 = getelementptr inbounds %"class.icu_75::number::NumberFormatterSettings.5", ptr %this1, i32 0, i32 0
  %9 = load ptr, ptr %status.addr, align 8
  invoke void @_ZN6icu_756number4impl19NumberFormatterImplC1ERKNS1_10MacroPropsER10UErrorCode(ptr noundef nonnull align 8 dereferenceable(600) %call16, ptr noundef nonnull align 8 dereferenceable(472) %fMacros17, ptr noundef nonnull align 4 dereferenceable(4) %9)
          to label %invoke.cont unwind label %lpad

invoke.cont:                                      ; preds = %new.notnull
  br label %new.cont

new.cont:                                         ; preds = %invoke.cont, %if.then15
  %10 = phi ptr [ %call16, %invoke.cont ], [ null, %if.then15 ]
  store ptr %10, ptr %compiled, align 8
  %11 = load ptr, ptr %compiled, align 8
  %cmp18 = icmp eq ptr %11, null
  br i1 %cmp18, label %if.then19, label %if.end20

if.then19:                                        ; preds = %new.cont
  %12 = load ptr, ptr %status.addr, align 8
  store i32 7, ptr %12, align 4
  store i1 false, ptr %retval, align 1
  br label %return

lpad:                                             ; preds = %new.notnull
  %13 = landingpad { ptr, i32 }
          cleanup
  %14 = extractvalue { ptr, i32 } %13, 0
  store ptr %14, ptr %exn.slot, align 8
  %15 = extractvalue { ptr, i32 } %13, 1
  store i32 %15, ptr %ehselector.slot, align 4
  %cleanup.is_active = load i1, ptr %cleanup.cond, align 1
  br i1 %cleanup.is_active, label %cleanup.action, label %cleanup.done

cleanup.action:                                   ; preds = %lpad
  %16 = load ptr, ptr %saved-rvalue, align 8
  call void @_ZN6icu_757UMemorydlEPv(ptr noundef %16) #10
  br label %cleanup.done

cleanup.done:                                     ; preds = %cleanup.action, %lpad
  br label %eh.resume

if.end20:                                         ; preds = %new.cont
  %17 = load ptr, ptr %compiled, align 8
  %fCompiled = getelementptr inbounds %"class.icu_75::number::LocalizedNumberFormatter", ptr %this1, i32 0, i32 1
  store ptr %17, ptr %fCompiled, align 8
  %18 = load ptr, ptr %callCount, align 8
  call void @_ZN6icu_7517umtx_storeReleaseERSt6atomicIiEi(ptr noundef nonnull align 4 dereferenceable(4) %18, i32 noundef -2147483648)
  store i1 true, ptr %retval, align 1
  br label %return

if.else:                                          ; preds = %land.lhs.true11, %if.end
  %19 = load i32, ptr %currentCount, align 4
  %cmp21 = icmp slt i32 %19, 0
  br i1 %cmp21, label %if.then22, label %if.else23

if.then22:                                        ; preds = %if.else
  store i1 true, ptr %retval, align 1
  br label %return

if.else23:                                        ; preds = %if.else
  store i1 false, ptr %retval, align 1
  br label %return

return:                                           ; preds = %if.else23, %if.then22, %if.end20, %if.then19
  %20 = load i1, ptr %retval, align 1
  ret i1 %20

eh.resume:                                        ; preds = %cleanup.done
  %exn = load ptr, ptr %exn.slot, align 8
  %sel = load i32, ptr %ehselector.slot, align 4
  %lpad.val = insertvalue { ptr, i32 } poison, ptr %exn, 0
  %lpad.val24 = insertvalue { ptr, i32 } %lpad.val, i32 %sel, 1
  resume { ptr, i32 } %lpad.val24
}