; Function Attrs: mustprogress uwtable
define noundef zeroext i1 @_ZNK6icu_756number24LocalizedNumberFormatter15computeCompiledER10UErrorCode(ptr noundef nonnull align 8 dereferenceable(496) %this, ptr noundef nonnull align 4 dereferenceable(4) %status) local_unnamed_addr #1 align 2 personality ptr @__gxx_personality_v0 {
entry:
  %fUnsafeCallCount = getelementptr inbounds i8, ptr %this, i64 480
  %0 = load atomic i32, ptr %fUnsafeCallCount acquire, align 8
  %cmp = icmp sgt i32 %0, -1
  br i1 %cmp, label %land.lhs.true, label %if.end

land.lhs.true:                                    ; preds = %entry
  %threshold = getelementptr inbounds i8, ptr %this, i64 240
  %1 = load i32, ptr %threshold, align 8
  %cmp2.not = icmp sle i32 %0, %1
  %cmp6 = icmp sgt i32 %1, 0
  %or.cond = and i1 %cmp2.not, %cmp6
  br i1 %or.cond, label %if.then, label %if.end

if.then:                                          ; preds = %land.lhs.true
  %2 = atomicrmw add ptr %fUnsafeCallCount, i32 1 seq_cst, align 4
  %add.i = add nsw i32 %2, 1
  br label %if.end

if.end:                                           ; preds = %if.then, %land.lhs.true, %entry
  %currentCount.0 = phi i32 [ %add.i, %if.then ], [ %0, %land.lhs.true ], [ %0, %entry ]
  %threshold9 = getelementptr inbounds i8, ptr %this, i64 240
  %3 = load i32, ptr %threshold9, align 8
  %cmp10 = icmp eq i32 %currentCount.0, %3
  %cmp14 = icmp sgt i32 %3, 0
  %or.cond10 = and i1 %cmp10, %cmp14
  br i1 %or.cond10, label %if.then15, label %if.else

if.then15:                                        ; preds = %if.end
  %call16 = tail call noundef ptr @_ZN6icu_757UMemorynwEm(i64 noundef 600) #14
  %new.isnull = icmp eq ptr %call16, null
  br i1 %new.isnull, label %if.then19, label %new.notnull

new.notnull:                                      ; preds = %if.then15
  invoke void @_ZN6icu_756number4impl19NumberFormatterImplC1ERKNS1_10MacroPropsER10UErrorCode(ptr noundef nonnull align 8 dereferenceable(600) %call16, ptr noundef nonnull align 8 dereferenceable(472) %this, ptr noundef nonnull align 4 dereferenceable(4) %status)
          to label %if.end20 unwind label %lpad

if.then19:                                        ; preds = %if.then15
  store i32 7, ptr %status, align 4
  br label %return

lpad:                                             ; preds = %new.notnull
  %4 = landingpad { ptr, i32 }
          cleanup
  tail call void @_ZN6icu_757UMemorydlEPv(ptr noundef nonnull %call16) #14
  resume { ptr, i32 } %4

if.end20:                                         ; preds = %new.notnull
  %fCompiled = getelementptr inbounds i8, ptr %this, i64 472
  store ptr %call16, ptr %fCompiled, align 8
  store atomic i32 -2147483648, ptr %fUnsafeCallCount release, align 8
  br label %return

if.else:                                          ; preds = %if.end
  %cmp21 = icmp slt i32 %currentCount.0, 0
  br label %return

return:                                           ; preds = %if.else, %if.end20, %if.then19
  %retval.0 = phi i1 [ false, %if.then19 ], [ true, %if.end20 ], [ %cmp21, %if.else ]
  ret i1 %retval.0
}